Certificate:
    Data:
        Version: 3 (0x2)
        Serial Number:
            15:a6:d2:2f:c2:86:35:3f:b5:ca:77:eb:e5:b4:f8:8f
        Signature Algorithm: sha256WithRSAEncryption
        Issuer: CN=MyVPN-CA
        Validity
            Not Before: Mar 12 20:56:22 2025 GMT
            Not After : Jun 15 20:56:22 2027 GMT
        Subject: CN=MyVPN-server
        Subject Public Key Info:
            Public Key Algorithm: rsaEncryption
                Public-Key: (2048 bit)
                Modulus:
                    00:9c:e3:15:24:7f:24:d1:4f:09:c4:83:51:a2:ba:
                    39:2a:19:ab:37:91:76:4c:ae:f8:24:e4:f8:9f:48:
                    6a:24:b6:64:b5:cf:3a:cc:32:58:78:78:0a:78:1c:
                    84:26:b4:9c:6d:0b:3e:8a:18:7a:23:da:0b:35:f4:
                    15:b4:7c:5d:db:07:e7:56:b6:bf:6f:37:43:c6:9b:
                    99:31:ad:aa:57:4b:00:7f:cc:7a:7f:9b:cd:71:35:
                    3e:72:4f:ef:ea:49:ee:09:e7:15:52:4e:0a:04:a3:
                    2b:d3:57:88:d1:0e:7a:63:cb:7b:a7:3e:5e:8a:37:
                    4a:c5:fc:d0:e7:69:47:7a:1a:35:7d:2e:21:fe:3f:
                    79:fd:b3:de:74:91:73:2b:d6:69:a0:20:de:b6:b4:
                    b1:4f:60:e8:5b:16:f2:11:ef:e4:3b:d5:8d:74:74:
                    cd:99:c4:65:08:fb:88:35:d9:85:3a:37:aa:45:ab:
                    a2:b3:f1:0b:c3:88:23:93:00:6e:4c:c0:15:a2:cc:
                    c1:bd:b2:e4:7c:72:de:bb:fe:39:f7:a0:5e:dd:dc:
                    15:5c:20:7b:fa:2d:4e:cf:8c:31:e4:de:68:5f:5f:
                    6b:4e:3d:ac:1c:4f:84:82:7f:a7:d9:a1:d6:7e:63:
                    91:70:a8:23:fa:e1:0d:17:26:7a:82:94:b8:9a:cc:
                    4c:9d
                Exponent: 65537 (0x10001)
        X509v3 extensions:
            X509v3 Basic Constraints: 
                CA:FALSE
            X509v3 Subject Key Identifier: 
                82:F0:9D:10:27:D0:69:47:9C:AE:38:79:A1:61:22:6D:DB:90:BC:FA
            X509v3 Authority Key Identifier: 
                keyid:5D:05:BB:96:B5:75:3E:06:F7:A6:99:3D:D6:6D:3C:82:3E:79:5D:66
                DirName:/CN=MyVPN-CA
                serial:06:37:F2:A0:BD:27:09:C2:D6:1F:C4:DB:CB:4C:01:4D:85:55:70:40
            X509v3 Extended Key Usage: 
                TLS Web Server Authentication
            X509v3 Key Usage: 
                Digital Signature, Key Encipherment
            X509v3 Subject Alternative Name: 
                DNS:MyVPN-server
    Signature Algorithm: sha256WithRSAEncryption
    Signature Value:
        4a:80:96:58:d2:b0:e5:b9:64:e2:5f:79:9c:a6:7f:86:2d:09:
        2c:34:c4:cb:f6:0b:65:ca:c4:b8:5b:0c:ef:ac:bb:6e:e1:03:
        c7:f5:8e:8a:81:68:f2:59:7c:54:7a:64:de:76:cc:74:6f:3d:
        12:29:31:b6:89:9a:58:87:5c:b2:30:aa:e9:d5:c4:65:f7:aa:
        f4:79:ea:7a:9a:88:6e:75:57:7c:86:0f:fa:90:d8:a0:49:7f:
        b2:97:2d:d7:b3:9e:79:b4:f5:94:70:a4:3c:04:43:0f:8f:f5:
        ec:46:8e:ad:0f:44:90:ea:bf:ac:a6:1e:e1:91:f8:27:63:e4:
        01:b8:19:6a:df:fb:75:e1:40:84:e9:52:c6:4b:d0:2a:28:cb:
        22:3c:67:bf:67:b8:de:69:9b:01:6f:e8:72:6a:f4:c0:f0:e3:
        8b:fd:4b:80:e8:55:9f:d2:23:2d:ea:0c:d5:31:78:0c:81:cd:
        01:3f:fc:c7:81:9c:a6:b2:83:9e:b3:69:b7:de:48:39:bb:92:
        92:a1:4d:22:ce:96:52:f6:c7:76:21:1a:23:76:d7:e6:34:2c:
        0b:89:71:7c:23:57:06:bb:7f:69:a6:9f:04:c4:60:e5:b4:8f:
        04:e6:65:73:d8:1d:89:b3:e5:4d:5c:d2:50:3e:c3:1c:6e:2b:
        1e:e7:1c:cc
-----BEGIN CERTIFICATE-----
MIIDbTCCAlWgAwIBAgIQFabSL8KGNT+1ynfr5bT4jzANBgkqhkiG9w0BAQsFADAT
MREwDwYDVQQDDAhNeVZQTi1DQTAeFw0yNTAzMTIyMDU2MjJaFw0yNzA2MTUyMDU2
MjJaMBcxFTATBgNVBAMMDE15VlBOLXNlcnZlcjCCASIwDQYJKoZIhvcNAQEBBQAD
ggEPADCCAQoCggEBAJzjFSR/JNFPCcSDUaK6OSoZqzeRdkyu+CTk+J9IaiS2ZLXP
OswyWHh4CngchCa0nG0LPooYeiPaCzX0FbR8XdsH51a2v283Q8abmTGtqldLAH/M
en+bzXE1PnJP7+pJ7gnnFVJOCgSjK9NXiNEOemPLe6c+Xoo3SsX80OdpR3oaNX0u
If4/ef2z3nSRcyvWaaAg3ra0sU9g6FsW8hHv5DvVjXR0zZnEZQj7iDXZhTo3qkWr
orPxC8OII5MAbkzAFaLMwb2y5Hxy3rv+OfegXt3cFVwge/otTs+MMeTeaF9fa049
rBxPhIJ/p9mh1n5jkXCoI/rhDRcmeoKUuJrMTJ0CAwEAAaOBuDCBtTAJBgNVHRME
AjAAMB0GA1UdDgQWBBSC8J0QJ9BpR5yuOHmhYSJt25C8+jBOBgNVHSMERzBFgBRd
BbuWtXU+BvemmT3WbTyCPnldZqEXpBUwEzERMA8GA1UEAwwITXlWUE4tQ0GCFAY3
8qC9JwnC1h/E28tMAU2FVXBAMBMGA1UdJQQMMAoGCCsGAQUFBwMBMAsGA1UdDwQE
AwIFoDAXBgNVHREEEDAOggxNeVZQTi1zZXJ2ZXIwDQYJKoZIhvcNAQELBQADggEB
AEqAlljSsOW5ZOJfeZymf4YtCSw0xMv2C2XKxLhbDO+su27hA8f1joqBaPJZfFR6
ZN52zHRvPRIpMbaJmliHXLIwqunVxGX3qvR56nqaiG51V3yGD/qQ2KBJf7KXLdez
nnm09ZRwpDwEQw+P9exGjq0PRJDqv6ymHuGR+Cdj5AG4GWrf+3XhQITpUsZL0Coo
yyI8Z79nuN5pmwFv6HJq9MDw44v9S4DoVZ/SIy3qDNUxeAyBzQE//MeBnKayg56z
abfeSDm7kpKhTSLOllL2x3YhGiN21+Y0LAuJcXwjVwa7f2mmnwTEYOW0jwTmZXPY
HYmz5U1c0lA+wxxuKx7nHMw=
-----END CERTIFICATE-----
