Certificate:
    Data:
        Version: 3 (0x2)
        Serial Number:
            43:fa:d4:86:84:af:0c:fe:5b:5a:8a:55:f8:a1:ef:cf
        Signature Algorithm: sha256WithRSAEncryption
        Issuer: CN=MyVPN-CA
        Validity
            Not Before: Mar 13 22:29:40 2025 GMT
            Not After : Jun 16 22:29:40 2027 GMT
        Subject: CN=john_doe
        Subject Public Key Info:
            Public Key Algorithm: rsaEncryption
                Public-Key: (2048 bit)
                Modulus:
                    00:d8:33:23:83:b7:6e:0e:bb:4b:08:3a:97:bf:15:
                    87:40:67:ec:7f:a1:ca:df:e2:04:87:12:94:70:45:
                    6f:ac:e9:57:eb:00:ee:87:67:09:41:e8:40:57:de:
                    e5:83:22:35:28:37:69:25:91:76:d4:b3:24:1d:d5:
                    67:a7:7d:ab:1d:d7:6b:34:94:21:ff:db:df:ea:a9:
                    ac:e1:25:fa:63:db:50:28:54:22:61:d3:54:68:a8:
                    4e:30:ee:ac:46:61:cc:4e:73:20:b1:54:9d:4c:56:
                    e2:70:e9:b2:ae:ea:9d:f3:c6:b5:ae:09:6d:87:45:
                    63:1b:d1:2c:c5:7f:76:75:dd:1d:1d:4a:a0:1b:72:
                    97:f2:5b:26:d9:a7:4b:4f:aa:8b:ef:70:e3:26:ad:
                    69:2c:26:65:ea:52:fb:eb:d9:01:85:11:9b:4b:c3:
                    9b:16:6b:27:70:1d:8e:1f:54:09:81:69:cd:74:83:
                    2e:57:c1:ef:f3:1e:dd:e0:a2:97:1d:67:71:ed:27:
                    33:49:01:59:82:11:93:a0:78:dd:ab:83:2d:9a:ac:
                    bc:76:59:0f:b8:5a:8d:2d:45:31:bf:0f:53:8c:c6:
                    f8:41:57:08:20:cc:68:cd:41:e6:c9:f0:e9:3a:c8:
                    91:34:f6:08:5a:c9:20:f8:99:b4:a6:6d:73:13:ce:
                    b4:59
                Exponent: 65537 (0x10001)
        X509v3 extensions:
            X509v3 Basic Constraints: 
                CA:FALSE
            X509v3 Subject Key Identifier: 
                A4:DC:5C:C6:2E:AA:84:85:AE:70:E7:A4:4B:DE:81:15:D3:81:FF:09
            X509v3 Authority Key Identifier: 
                keyid:5D:05:BB:96:B5:75:3E:06:F7:A6:99:3D:D6:6D:3C:82:3E:79:5D:66
                DirName:/CN=MyVPN-CA
                serial:06:37:F2:A0:BD:27:09:C2:D6:1F:C4:DB:CB:4C:01:4D:85:55:70:40
            X509v3 Extended Key Usage: 
                TLS Web Client Authentication
            X509v3 Key Usage: 
                Digital Signature
    Signature Algorithm: sha256WithRSAEncryption
    Signature Value:
        8a:7a:5a:5c:96:02:73:ed:d1:c8:62:25:7f:a7:4a:fb:df:86:
        84:24:10:d8:c5:7b:a7:ea:39:14:4e:ba:73:b7:25:7e:3c:65:
        ce:5a:8e:35:64:43:dd:36:c0:e9:07:0d:e4:db:33:20:aa:d5:
        b9:15:9b:64:c8:c6:91:86:5c:97:12:ee:0f:52:1a:25:e7:0f:
        fa:dd:70:bb:7d:f2:99:94:d9:ac:d7:5b:5e:b9:df:4b:56:c9:
        5c:bd:5b:dd:dd:b6:ac:a5:08:4e:b4:bd:8b:28:4c:16:14:7f:
        13:e6:a6:2c:7a:fe:45:66:5f:1e:a8:62:06:7a:dd:5c:b0:a9:
        6f:c5:46:c7:85:6d:d1:7d:5d:6b:0e:7c:00:70:ed:d1:f2:41:
        d5:54:bf:a8:15:35:29:c0:7c:9c:fa:34:e0:aa:29:26:2b:1a:
        9f:ab:f6:f5:f3:64:a9:a9:66:71:96:3b:2b:13:77:90:e1:0e:
        8c:cc:4c:67:50:49:b4:9a:bf:e5:a8:6c:03:9d:b0:d6:1f:67:
        11:24:8b:16:bd:64:94:6e:36:af:f9:a1:94:83:e6:fa:e9:74:
        5c:7a:7e:44:77:ef:17:12:ae:43:38:52:d7:c9:db:ce:9c:f4:
        bc:67:d2:e6:a5:e4:1d:2a:64:d3:ea:a3:21:32:c5:1d:e8:54:
        13:57:20:8a
-----BEGIN CERTIFICATE-----
MIIDUDCCAjigAwIBAgIQQ/rUhoSvDP5bWopV+KHvzzANBgkqhkiG9w0BAQsFADAT
MREwDwYDVQQDDAhNeVZQTi1DQTAeFw0yNTAzMTMyMjI5NDBaFw0yNzA2MTYyMjI5
NDBaMBMxETAPBgNVBAMMCGpvaG5fZG9lMIIBIjANBgkqhkiG9w0BAQEFAAOCAQ8A
MIIBCgKCAQEA2DMjg7duDrtLCDqXvxWHQGfsf6HK3+IEhxKUcEVvrOlX6wDuh2cJ
QehAV97lgyI1KDdpJZF21LMkHdVnp32rHddrNJQh/9vf6qms4SX6Y9tQKFQiYdNU
aKhOMO6sRmHMTnMgsVSdTFbicOmyruqd88a1rglth0VjG9EsxX92dd0dHUqgG3KX
8lsm2adLT6qL73DjJq1pLCZl6lL769kBhRGbS8ObFmsncB2OH1QJgWnNdIMuV8Hv
8x7d4KKXHWdx7SczSQFZghGToHjdq4Mtmqy8dlkPuFqNLUUxvw9TjMb4QVcIIMxo
zUHmyfDpOsiRNPYIWskg+Jm0pm1zE860WQIDAQABo4GfMIGcMAkGA1UdEwQCMAAw
HQYDVR0OBBYEFKTcXMYuqoSFrnDnpEvegRXTgf8JME4GA1UdIwRHMEWAFF0Fu5a1
dT4G96aZPdZtPII+eV1moRekFTATMREwDwYDVQQDDAhNeVZQTi1DQYIUBjfyoL0n
CcLWH8Tby0wBTYVVcEAwEwYDVR0lBAwwCgYIKwYBBQUHAwIwCwYDVR0PBAQDAgeA
MA0GCSqGSIb3DQEBCwUAA4IBAQCKelpclgJz7dHIYiV/p0r734aEJBDYxXun6jkU
TrpztyV+PGXOWo41ZEPdNsDpBw3k2zMgqtW5FZtkyMaRhlyXEu4PUhol5w/63XC7
ffKZlNms11teud9LVslcvVvd3baspQhOtL2LKEwWFH8T5qYsev5FZl8eqGIGet1c
sKlvxUbHhW3RfV1rDnwAcO3R8kHVVL+oFTUpwHyc+jTgqikmKxqfq/b182SpqWZx
ljsrE3eQ4Q6MzExnUEm0mr/lqGwDnbDWH2cRJIsWvWSUbjav+aGUg+b66XRcen5E
d+8XEq5DOFLXydvOnPS8Z9LmpeQdKmTT6qMhMsUd6FQTVyCK
-----END CERTIFICATE-----
