Certificate:
    Data:
        Version: 3 (0x2)
        Serial Number:
            66:15:d1:5f:6d:03:a2:dc:d5:cf:67:5c:f2:9e:1e:f1
        Signature Algorithm: sha256WithRSAEncryption
        Issuer: CN=MyVPN-CA
        Validity
            Not Before: Mar 14 03:01:18 2025 GMT
            Not After : Jun 17 03:01:18 2027 GMT
        Subject: CN=alain
        Subject Public Key Info:
            Public Key Algorithm: rsaEncryption
                Public-Key: (2048 bit)
                Modulus:
                    00:d4:b1:f7:dd:b4:01:51:45:d2:09:3b:e3:43:35:
                    43:70:69:e7:ea:87:dd:cb:7f:ba:bb:11:6c:95:8e:
                    4b:fc:54:11:df:7d:43:c6:22:3e:9f:3e:1a:ad:ed:
                    2e:ae:67:68:c4:10:5a:5f:6c:b0:58:82:11:30:b6:
                    4c:81:bb:86:c3:74:e0:bd:da:15:22:73:03:d8:38:
                    7d:17:3f:de:30:e6:32:56:bd:ca:44:b1:73:f7:b7:
                    8f:83:cb:7f:c1:f2:b7:e5:31:53:cd:f1:ce:1b:55:
                    5e:3c:41:6f:ea:58:3f:fc:22:5f:69:0b:39:b9:29:
                    26:5f:9f:13:ea:cd:a6:5a:a3:5a:6a:eb:ad:2b:fd:
                    7b:49:b4:41:ac:eb:c9:06:84:82:05:35:b4:81:84:
                    50:ad:5f:93:53:7c:5e:fc:c6:8d:67:48:96:51:60:
                    1a:16:fa:73:02:86:cb:a6:4d:42:d9:0c:79:51:9d:
                    97:d7:be:c9:9f:62:8a:5a:24:21:7e:8a:b8:8d:5c:
                    d7:9a:f6:ee:33:15:4e:b1:3c:f8:3c:ea:09:e8:e8:
                    66:9f:7a:aa:70:41:e5:d5:93:4a:d5:17:8f:2a:3a:
                    8a:09:43:2f:be:03:14:30:be:32:bb:f7:fe:4d:61:
                    b9:6c:2b:0f:5c:f2:0e:aa:c5:56:46:2e:a1:0e:22:
                    f7:bb
                Exponent: 65537 (0x10001)
        X509v3 extensions:
            X509v3 Basic Constraints: 
                CA:FALSE
            X509v3 Subject Key Identifier: 
                CB:56:08:F9:A6:95:B4:DE:61:CD:E0:2D:A3:41:FC:47:07:CF:A9:C4
            X509v3 Authority Key Identifier: 
                keyid:5D:05:BB:96:B5:75:3E:06:F7:A6:99:3D:D6:6D:3C:82:3E:79:5D:66
                DirName:/CN=MyVPN-CA
                serial:06:37:F2:A0:BD:27:09:C2:D6:1F:C4:DB:CB:4C:01:4D:85:55:70:40
            X509v3 Extended Key Usage: 
                TLS Web Client Authentication
            X509v3 Key Usage: 
                Digital Signature
    Signature Algorithm: sha256WithRSAEncryption
    Signature Value:
        74:c4:e9:0e:8c:7c:c0:c5:77:c9:55:5e:6a:7a:43:14:c9:af:
        1d:31:f4:64:0f:a2:cf:7b:c5:60:64:62:44:b2:17:5e:a4:90:
        86:a3:8c:9e:2f:af:f9:59:1b:5f:71:98:d5:91:e3:58:98:88:
        d2:b3:bd:1f:7f:77:46:df:21:a7:9b:c2:89:37:ed:71:13:39:
        e4:bf:bc:8c:89:0a:d7:39:33:26:5d:0d:a7:46:6c:8c:e1:42:
        5c:ec:70:f4:e1:01:c7:2c:c4:e2:41:eb:95:31:4e:e9:0e:e4:
        99:90:16:5e:a9:21:50:13:f0:b8:11:52:e1:d0:e3:af:c1:46:
        67:eb:da:ff:00:4c:70:d0:85:29:87:43:b4:4f:97:d2:fa:fe:
        22:88:d9:e6:78:31:b5:e8:40:c9:40:e3:76:51:1d:f3:df:cb:
        19:38:fa:c3:92:7d:c6:04:fc:9f:4e:6b:2c:c6:ce:5c:7e:c3:
        94:ac:64:0e:09:25:4c:fe:ee:2d:ff:61:a2:e5:18:28:8b:ab:
        4e:4f:ae:78:39:6a:d3:7c:8a:a2:42:ab:72:6a:16:6f:bd:84:
        a5:2b:44:7f:72:f8:28:ea:16:8e:2c:04:af:2b:3e:30:21:dd:
        76:45:41:aa:bb:2a:97:2b:43:5d:34:c0:a9:09:fa:b8:f4:cb:
        15:98:0a:60
-----BEGIN CERTIFICATE-----
MIIDTTCCAjWgAwIBAgIQZhXRX20DotzVz2dc8p4e8TANBgkqhkiG9w0BAQsFADAT
MREwDwYDVQQDDAhNeVZQTi1DQTAeFw0yNTAzMTQwMzAxMThaFw0yNzA2MTcwMzAx
MThaMBAxDjAMBgNVBAMMBWFsYWluMIIBIjANBgkqhkiG9w0BAQEFAAOCAQ8AMIIB
CgKCAQEA1LH33bQBUUXSCTvjQzVDcGnn6ofdy3+6uxFslY5L/FQR331DxiI+nz4a
re0urmdoxBBaX2ywWIIRMLZMgbuGw3TgvdoVInMD2Dh9Fz/eMOYyVr3KRLFz97eP
g8t/wfK35TFTzfHOG1VePEFv6lg//CJfaQs5uSkmX58T6s2mWqNaauutK/17SbRB
rOvJBoSCBTW0gYRQrV+TU3xe/MaNZ0iWUWAaFvpzAobLpk1C2Qx5UZ2X177Jn2KK
WiQhfoq4jVzXmvbuMxVOsTz4POoJ6Ohmn3qqcEHl1ZNK1RePKjqKCUMvvgMUML4y
u/f+TWG5bCsPXPIOqsVWRi6hDiL3uwIDAQABo4GfMIGcMAkGA1UdEwQCMAAwHQYD
VR0OBBYEFMtWCPmmlbTeYc3gLaNB/EcHz6nEME4GA1UdIwRHMEWAFF0Fu5a1dT4G
96aZPdZtPII+eV1moRekFTATMREwDwYDVQQDDAhNeVZQTi1DQYIUBjfyoL0nCcLW
H8Tby0wBTYVVcEAwEwYDVR0lBAwwCgYIKwYBBQUHAwIwCwYDVR0PBAQDAgeAMA0G
CSqGSIb3DQEBCwUAA4IBAQB0xOkOjHzAxXfJVV5qekMUya8dMfRkD6LPe8VgZGJE
shdepJCGo4yeL6/5WRtfcZjVkeNYmIjSs70ff3dG3yGnm8KJN+1xEznkv7yMiQrX
OTMmXQ2nRmyM4UJc7HD04QHHLMTiQeuVMU7pDuSZkBZeqSFQE/C4EVLh0OOvwUZn
69r/AExw0IUph0O0T5fS+v4iiNnmeDG16EDJQON2UR3z38sZOPrDkn3GBPyfTmss
xs5cfsOUrGQOCSVM/u4t/2Gi5Rgoi6tOT654OWrTfIqiQqtyahZvvYSlK0R/cvgo
6haOLASvKz4wId12RUGquyqXK0NdNMCpCfq49MsVmApg
-----END CERTIFICATE-----
