Certificate:
    Data:
        Version: 3 (0x2)
        Serial Number:
            ff:e5:f3:e7:5d:24:53:ba:0b:99:98:5b:7e:f7:b5:52
        Signature Algorithm: sha256WithRSAEncryption
        Issuer: CN=MyVPN-CA
        Validity
            Not Before: Mar 12 20:57:08 2025 GMT
            Not After : Jun 15 20:57:08 2027 GMT
        Subject: CN=client1
        Subject Public Key Info:
            Public Key Algorithm: rsaEncryption
                Public-Key: (2048 bit)
                Modulus:
                    00:ed:c0:5c:ab:43:0a:e8:ab:dd:41:b1:48:c6:e9:
                    a5:12:9e:9a:f3:57:7a:3b:85:72:d8:07:59:13:7e:
                    7a:80:9f:53:db:63:d7:9e:53:12:bb:d6:59:46:eb:
                    49:f6:e2:d6:69:b0:84:b5:a2:12:d9:22:14:97:12:
                    89:23:75:df:42:18:68:d7:a2:51:89:da:b0:78:4c:
                    e1:b2:80:c7:10:6b:cc:fb:51:c7:56:b0:5b:1c:59:
                    0e:82:7e:c3:6f:b1:2b:a2:1a:5f:b6:2e:b0:d4:f2:
                    c7:13:c1:b2:57:ac:00:b3:31:fd:a7:17:d0:78:3d:
                    02:d4:c1:ef:98:59:55:5d:59:de:07:27:ea:4c:67:
                    b1:2b:c8:0b:5f:95:9b:f3:ec:b2:c2:bd:56:94:84:
                    d2:df:a8:dd:c1:b7:8d:91:7e:f0:a5:45:c5:3e:ca:
                    b9:6d:e8:f3:80:1f:d2:6c:f9:40:22:8e:e1:5c:a8:
                    7b:56:dc:bf:be:22:c8:82:50:15:da:a8:1f:9b:05:
                    14:ae:63:29:57:9a:5c:5c:f6:c8:6e:92:06:61:d0:
                    ba:e4:70:bd:93:e2:c5:ab:84:aa:c0:5f:3d:d1:b5:
                    b0:ef:e8:c5:c0:26:86:b2:d4:b4:db:6d:e7:83:eb:
                    66:08:6c:73:a7:53:f8:fb:2d:8d:94:07:1f:3f:72:
                    bb:53
                Exponent: 65537 (0x10001)
        X509v3 extensions:
            X509v3 Basic Constraints: 
                CA:FALSE
            X509v3 Subject Key Identifier: 
                78:3C:2C:DA:E7:C3:7D:43:A1:C8:5D:59:12:A7:3D:52:29:5B:94:59
            X509v3 Authority Key Identifier: 
                keyid:5D:05:BB:96:B5:75:3E:06:F7:A6:99:3D:D6:6D:3C:82:3E:79:5D:66
                DirName:/CN=MyVPN-CA
                serial:06:37:F2:A0:BD:27:09:C2:D6:1F:C4:DB:CB:4C:01:4D:85:55:70:40
            X509v3 Extended Key Usage: 
                TLS Web Client Authentication
            X509v3 Key Usage: 
                Digital Signature
    Signature Algorithm: sha256WithRSAEncryption
    Signature Value:
        4a:e1:b2:08:79:18:65:fb:73:49:00:e0:64:d3:5a:a5:2f:08:
        56:42:ea:36:2a:f6:a1:e3:7b:d3:fd:c1:93:f9:2b:9f:93:cb:
        37:ed:ae:b0:16:87:b3:bf:47:0c:27:22:93:7c:b8:4c:dd:08:
        98:ea:14:d1:94:6e:04:3f:c3:74:87:59:67:3a:32:e1:a8:a0:
        3b:0a:f4:89:75:a7:da:40:b4:9a:87:6e:39:fc:44:e8:2d:a7:
        22:47:2c:76:4f:4a:3c:df:48:9d:2f:13:55:3e:41:86:63:2c:
        c7:8f:27:53:6c:37:65:cb:e1:4b:94:f4:be:32:dd:b7:27:41:
        c7:5f:d4:13:47:c8:86:40:30:ff:68:03:16:37:d2:4a:ab:47:
        73:f1:06:b9:db:93:4d:e7:8d:fb:8f:4a:3f:88:90:5b:48:ab:
        bd:ab:62:dc:cf:20:64:5e:36:ed:71:b9:e0:bd:6b:89:85:d6:
        71:a6:ca:7b:25:ba:eb:79:76:0a:91:f3:01:f2:cf:28:1f:34:
        02:2b:49:81:d4:84:d5:98:8c:4a:51:ce:de:91:f3:8c:56:93:
        e7:ac:a2:df:a5:c1:14:b1:35:7d:1a:19:22:70:98:47:9d:b8:
        84:71:64:d1:e2:61:30:a4:9d:13:9a:bd:99:ba:85:e9:84:18:
        a0:1c:a8:98
-----BEGIN CERTIFICATE-----
MIIDUDCCAjigAwIBAgIRAP/l8+ddJFO6C5mYW373tVIwDQYJKoZIhvcNAQELBQAw
EzERMA8GA1UEAwwITXlWUE4tQ0EwHhcNMjUwMzEyMjA1NzA4WhcNMjcwNjE1MjA1
NzA4WjASMRAwDgYDVQQDDAdjbGllbnQxMIIBIjANBgkqhkiG9w0BAQEFAAOCAQ8A
MIIBCgKCAQEA7cBcq0MK6KvdQbFIxumlEp6a81d6O4Vy2AdZE356gJ9T22PXnlMS
u9ZZRutJ9uLWabCEtaIS2SIUlxKJI3XfQhho16JRidqweEzhsoDHEGvM+1HHVrBb
HFkOgn7Db7Erohpfti6w1PLHE8GyV6wAszH9pxfQeD0C1MHvmFlVXVneByfqTGex
K8gLX5Wb8+yywr1WlITS36jdwbeNkX7wpUXFPsq5bejzgB/SbPlAIo7hXKh7Vty/
viLIglAV2qgfmwUUrmMpV5pcXPbIbpIGYdC65HC9k+LFq4SqwF890bWw7+jFwCaG
stS0223ng+tmCGxzp1P4+y2NlAcfP3K7UwIDAQABo4GfMIGcMAkGA1UdEwQCMAAw
HQYDVR0OBBYEFHg8LNrnw31DochdWRKnPVIpW5RZME4GA1UdIwRHMEWAFF0Fu5a1
dT4G96aZPdZtPII+eV1moRekFTATMREwDwYDVQQDDAhNeVZQTi1DQYIUBjfyoL0n
CcLWH8Tby0wBTYVVcEAwEwYDVR0lBAwwCgYIKwYBBQUHAwIwCwYDVR0PBAQDAgeA
MA0GCSqGSIb3DQEBCwUAA4IBAQBK4bIIeRhl+3NJAOBk01qlLwhWQuo2Kvah43vT
/cGT+Sufk8s37a6wFoezv0cMJyKTfLhM3QiY6hTRlG4EP8N0h1lnOjLhqKA7CvSJ
dafaQLSah245/EToLaciRyx2T0o830idLxNVPkGGYyzHjydTbDdly+FLlPS+Mt23
J0HHX9QTR8iGQDD/aAMWN9JKq0dz8Qa525NN5437j0o/iJBbSKu9q2LczyBkXjbt
cbngvWuJhdZxpsp7JbrreXYKkfMB8s8oHzQCK0mB1ITVmIxKUc7ekfOMVpPnrKLf
pcEUsTV9GhkicJhHnbiEcWTR4mEwpJ0Tmr2ZuoXphBigHKiY
-----END CERTIFICATE-----
